target datalayout = "e-m:e-p270:32:32-p271:32:32-p272:64:64-i64:64-i128:128-f80:128-n8:16:32:64-S128"
target triple = "x86_64-pc-linux-gnu"

%struct._zend_executor_globals = type { %struct._zval_struct, %struct._zval_struct, [32 x ptr], ptr, ptr, %struct._zend_array, %struct._zend_array, ptr, i32, i32, ptr, ptr, ptr, ptr, ptr, ptr, i64, ptr, ptr, i32, i32, i64, i32, i32, i32, i8, i8, %struct.zend_atomic_bool_s, %struct.zend_atomic_bool_s, ptr, i64, ptr, ptr, %struct._zend_array, %struct._zend_array, i32, i8, %struct._zval_struct, %struct._zval_struct, %struct._zend_stack, %struct._zend_stack, %struct._zend_stack, ptr, i32, i32, i64, ptr, ptr, ptr, %struct._zend_objects_store, ptr, ptr, ptr, [3 x %struct._zend_op], ptr, i8, i8, i64, i32, i32, ptr, [16 x %struct._HashTableIterator], ptr, %union._zend_function, %struct._zend_op, %struct._zend_array, i64, %struct.zend_get_gc_buffer, ptr, ptr, ptr, i64, i8, i32, ptr, ptr, i64, %struct._zend_call_stack, i64, i64, [6 x ptr] }
%struct.zend_atomic_bool_s = type { i8 }
%struct._zval_struct = type { %union._zend_value, %union.anon, %union.anon.2 }
%union._zend_value = type { i64 }
%union.anon = type { i32 }
%union.anon.2 = type { i32 }
%struct._zend_stack = type { i32, i32, i32, ptr }
%struct._zend_objects_store = type { ptr, i32, i32, i32 }
%struct._HashTableIterator = type { ptr, i32, i32 }
%union._zend_function = type { %struct._zend_op_array }
%struct._zend_op_array = type { i8, [3 x i8], i32, ptr, ptr, ptr, i32, i32, ptr, ptr, ptr, ptr, i32, i32, i32, i32, ptr, ptr, ptr, ptr, ptr, i32, i32, ptr, ptr, ptr, i32, i32, i32, i32, ptr, ptr, [6 x ptr] }
%struct._zend_op = type { ptr, %union._znode_op, %union._znode_op, %union._znode_op, i32, i32, i8, i8, i8, i8 }
%union._znode_op = type { i32 }
%struct._zend_array = type { %struct._zend_refcounted_h, %union.anon.4, i32, %union.anon.6, i32, i32, i32, i32, i64, ptr }
%struct._zend_refcounted_h = type { i32, %union.anon.3 }
%union.anon.3 = type { i32 }
%union.anon.4 = type { i32 }
%union.anon.6 = type { ptr }
%struct.zend_get_gc_buffer = type { ptr, ptr, ptr }
%struct._zend_call_stack = type { ptr, i64 }
%struct._zend_execute_data = type { ptr, ptr, ptr, ptr, %struct._zval_struct, ptr, ptr, ptr, ptr }
%struct._spl_heap_object = type { ptr, i32, ptr, ptr, %struct._zend_object }
%struct._zend_object = type { %struct._zend_refcounted_h, i32, ptr, ptr, ptr, [1 x %struct._zval_struct] }
%struct._spl_ptr_heap = type { ptr, ptr, ptr, ptr, i32, i32, i64, i64 }
%struct.anon.0 = type { i8, i8, %union.anon.1 }
%union.anon.1 = type { i16 }
%struct._zend_reference = type { %struct._zend_refcounted_h, %struct._zval_struct, %union.zend_property_info_source_list }
%union.zend_property_info_source_list = type { ptr }

@executor_globals = external global %struct._zend_executor_globals, align 8
@spl_ce_RuntimeException = external global ptr, align 8
@.str = private unnamed_addr constant [58 x i8] c"Heap is corrupted, heap properties are no longer ensured.\00", align 1
@.str.2 = private unnamed_addr constant [28 x i8] c"Can't peek at an empty heap\00", align 1

; Function Attrs: nounwind uwtable
define internal ptr @spl_ptr_heap_top(ptr noundef %0) #0 {
  %2 = alloca ptr, align 8
  %3 = alloca ptr, align 8
  store ptr %0, ptr %3, align 8
  %4 = load ptr, ptr %3, align 8
  %5 = getelementptr inbounds %struct._spl_ptr_heap, ptr %4, i32 0, i32 4
  %6 = load i32, ptr %5, align 8
  %7 = icmp eq i32 %6, 0
  br i1 %7, label %8, label %9

8:                                                ; preds = %1
  store ptr null, ptr %2, align 8
  br label %13

9:                                                ; preds = %1
  %10 = load ptr, ptr %3, align 8
  %11 = getelementptr inbounds %struct._spl_ptr_heap, ptr %10, i32 0, i32 0
  %12 = load ptr, ptr %11, align 8
  store ptr %12, ptr %2, align 8
  br label %13

13:                                               ; preds = %9, %8
  %14 = load ptr, ptr %2, align 8
  ret ptr %14
}

; Function Attrs: nounwind uwtable
define internal ptr @spl_heap_from_obj(ptr noundef %0) #0 {
  %2 = alloca ptr, align 8
  store ptr %0, ptr %2, align 8
  %3 = load ptr, ptr %2, align 8
  %4 = getelementptr inbounds i8, ptr %3, i64 -32
  ret ptr %4
}

; Function Attrs: nounwind uwtable
define hidden void @zim_SplHeap_top(ptr noundef %0, ptr noundef %1) #0 {
  %3 = alloca ptr, align 8
  %4 = alloca ptr, align 8
  %5 = alloca ptr, align 8
  %6 = alloca ptr, align 8
  %7 = alloca ptr, align 8
  %8 = alloca ptr, align 8
  %9 = alloca ptr, align 8
  %10 = alloca ptr, align 8
  %11 = alloca ptr, align 8
  %12 = alloca ptr, align 8
  %13 = alloca ptr, align 8
  %14 = alloca ptr, align 8
  %15 = alloca i32, align 4
  store ptr %0, ptr %7, align 8
  store ptr %1, ptr %8, align 8
  %16 = load ptr, ptr %7, align 8
  %17 = getelementptr inbounds %struct._zend_execute_data, ptr %16, i32 0, i32 4
  %18 = getelementptr inbounds %struct._zval_struct, ptr %17, i32 0, i32 2
  %19 = load i32, ptr %18, align 4
  %20 = icmp eq i32 %19, 0
  %21 = xor i1 %20, true
  %22 = xor i1 %21, true
  %23 = zext i1 %22 to i32
  %24 = sext i32 %23 to i64
  %25 = icmp ne i64 %24, 0
  br i1 %25, label %26, label %27

26:                                               ; preds = %2
  br label %28

27:                                               ; preds = %2
  call void @zend_wrong_parameters_none_error()
  br label %28

28:                                               ; preds = %27, %26
  %29 = phi i32 [ 0, %26 ], [ -1, %27 ]
  %30 = icmp eq i32 %29, -1
  br i1 %30, label %31, label %36

31:                                               ; preds = %28
  br label %32

32:                                               ; preds = %31
  %33 = load ptr, ptr getelementptr inbounds (%struct._zend_executor_globals, ptr @executor_globals, i32 0, i32 50), align 8
  %34 = icmp ne ptr %33, null
  call void @llvm.assume(i1 %34)
  br label %148

35:                                               ; No predecessors!
  br label %36

36:                                               ; preds = %35, %28
  %37 = load ptr, ptr %7, align 8
  %38 = getelementptr inbounds %struct._zend_execute_data, ptr %37, i32 0, i32 4
  %39 = getelementptr inbounds %struct._zval_struct, ptr %38, i32 0, i32 0
  %40 = load ptr, ptr %39, align 8
  %41 = call ptr @spl_heap_from_obj(ptr noundef %40)
  store ptr %41, ptr %10, align 8
  %42 = load ptr, ptr %10, align 8
  %43 = getelementptr inbounds %struct._spl_heap_object, ptr %42, i32 0, i32 0
  %44 = load ptr, ptr %43, align 8
  %45 = getelementptr inbounds %struct._spl_ptr_heap, ptr %44, i32 0, i32 5
  %46 = load i32, ptr %45, align 4
  %47 = and i32 %46, 1
  %48 = icmp ne i32 %47, 0
  br i1 %48, label %49, label %56

49:                                               ; preds = %36
  %50 = load ptr, ptr @spl_ce_RuntimeException, align 8
  %51 = call ptr @zend_throw_exception(ptr noundef %50, ptr noundef @.str, i64 noundef 0)
  br label %52

52:                                               ; preds = %49
  %53 = load ptr, ptr getelementptr inbounds (%struct._zend_executor_globals, ptr @executor_globals, i32 0, i32 50), align 8
  %54 = icmp ne ptr %53, null
  call void @llvm.assume(i1 %54)
  br label %148

55:                                               ; No predecessors!
  br label %56

56:                                               ; preds = %55, %36
  %57 = load ptr, ptr %10, align 8
  %58 = getelementptr inbounds %struct._spl_heap_object, ptr %57, i32 0, i32 0
  %59 = load ptr, ptr %58, align 8
  %60 = call ptr @spl_ptr_heap_top(ptr noundef %59)
  store ptr %60, ptr %9, align 8
  %61 = load ptr, ptr %9, align 8
  %62 = icmp ne ptr %61, null
  br i1 %62, label %70, label %63

63:                                               ; preds = %56
  %64 = load ptr, ptr @spl_ce_RuntimeException, align 8
  %65 = call ptr @zend_throw_exception(ptr noundef %64, ptr noundef @.str.2, i64 noundef 0)
  br label %66

66:                                               ; preds = %63
  %67 = load ptr, ptr getelementptr inbounds (%struct._zend_executor_globals, ptr @executor_globals, i32 0, i32 50), align 8
  %68 = icmp ne ptr %67, null
  call void @llvm.assume(i1 %68)
  br label %148

69:                                               ; No predecessors!
  br label %70

70:                                               ; preds = %69, %56
  br label %71

71:                                               ; preds = %70
  br label %72

72:                                               ; preds = %71
  %73 = load ptr, ptr %9, align 8
  store ptr %73, ptr %11, align 8
  %74 = load ptr, ptr %11, align 8
  %75 = getelementptr inbounds %struct._zval_struct, ptr %74, i32 0, i32 1
  %76 = load i32, ptr %75, align 8
  %77 = and i32 %76, 65280
  %78 = icmp ne i32 %77, 0
  br i1 %78, label %79, label %128

79:                                               ; preds = %72
  %80 = load ptr, ptr %11, align 8
  %81 = getelementptr inbounds %struct._zval_struct, ptr %80, i32 0, i32 1
  %82 = load i32, ptr %81, align 8
  %83 = and i32 %82, 255
  %84 = icmp eq i32 %83, 10
  %85 = xor i1 %84, true
  %86 = xor i1 %85, true
  %87 = zext i1 %86 to i32
  %88 = sext i32 %87 to i64
  %89 = icmp ne i64 %88, 0
  br i1 %89, label %90, label %114

90:                                               ; preds = %79
  %91 = load ptr, ptr %11, align 8
  %92 = getelementptr inbounds %struct._zval_struct, ptr %91, i32 0, i32 0
  %93 = load ptr, ptr %92, align 8
  %94 = getelementptr inbounds %struct._zend_reference, ptr %93, i32 0, i32 1
  store ptr %94, ptr %11, align 8
  %95 = load ptr, ptr %11, align 8
  %96 = getelementptr inbounds %struct._zval_struct, ptr %95, i32 0, i32 1
  %97 = load i32, ptr %96, align 8
  %98 = and i32 %97, 65280
  %99 = icmp ne i32 %98, 0
  br i1 %99, label %100, label %113

100:                                              ; preds = %90
  %101 = load ptr, ptr %11, align 8
  store ptr %101, ptr %5, align 8
  %102 = load ptr, ptr %5, align 8
  %103 = getelementptr inbounds %struct._zval_struct, ptr %102, i32 0, i32 1
  %104 = getelementptr inbounds %struct.anon.0, ptr %103, i32 0, i32 1
  %105 = load i8, ptr %104, align 1
  %106 = zext i8 %105 to i32
  %107 = icmp ne i32 %106, 0
  call void @llvm.assume(i1 %107)
  %108 = load ptr, ptr %5, align 8
  %109 = load ptr, ptr %108, align 8
  store ptr %109, ptr %4, align 8
  %110 = load ptr, ptr %4, align 8
  %111 = load i32, ptr %110, align 4
  %112 = add i32 %111, 1
  store i32 %112, ptr %110, align 4
  br label %113

113:                                              ; preds = %100, %90
  br label %127

114:                                              ; preds = %79
  %115 = load ptr, ptr %11, align 8
  store ptr %115, ptr %6, align 8
  %116 = load ptr, ptr %6, align 8
  %117 = getelementptr inbounds %struct._zval_struct, ptr %116, i32 0, i32 1
  %118 = getelementptr inbounds %struct.anon.0, ptr %117, i32 0, i32 1
  %119 = load i8, ptr %118, align 1
  %120 = zext i8 %119 to i32
  %121 = icmp ne i32 %120, 0
  call void @llvm.assume(i1 %121)
  %122 = load ptr, ptr %6, align 8
  %123 = load ptr, ptr %122, align 8
  store ptr %123, ptr %3, align 8
  %124 = load ptr, ptr %3, align 8
  %125 = load i32, ptr %124, align 4
  %126 = add i32 %125, 1
  store i32 %126, ptr %124, align 4
  br label %127

127:                                              ; preds = %114, %113
  br label %128

128:                                              ; preds = %127, %72
  br label %129

129:                                              ; preds = %128
  %130 = load ptr, ptr %8, align 8
  store ptr %130, ptr %12, align 8
  %131 = load ptr, ptr %11, align 8
  store ptr %131, ptr %13, align 8
  %132 = load ptr, ptr %13, align 8
  %133 = getelementptr inbounds %struct._zval_struct, ptr %132, i32 0, i32 0
  %134 = load ptr, ptr %133, align 8
  store ptr %134, ptr %14, align 8
  %135 = load ptr, ptr %13, align 8
  %136 = getelementptr inbounds %struct._zval_struct, ptr %135, i32 0, i32 1
  %137 = load i32, ptr %136, align 8
  store i32 %137, ptr %15, align 4
  br label %138

138:                                              ; preds = %129
  %139 = load ptr, ptr %14, align 8
  %140 = load ptr, ptr %12, align 8
  %141 = getelementptr inbounds %struct._zval_struct, ptr %140, i32 0, i32 0
  store ptr %139, ptr %141, align 8
  %142 = load i32, ptr %15, align 4
  %143 = load ptr, ptr %12, align 8
  %144 = getelementptr inbounds %struct._zval_struct, ptr %143, i32 0, i32 1
  store i32 %142, ptr %144, align 8
  br label %145

145:                                              ; preds = %138
  br label %146

146:                                              ; preds = %145
  br label %147

147:                                              ; preds = %146
  br label %148

148:                                              ; preds = %147, %66, %52, %32
  ret void
}