; Function Attrs: nounwind uwtable
define hidden void @zim_SplHeap_top(ptr nocapture noundef readonly %0, ptr nocapture noundef writeonly %1) #0 {
  %3 = getelementptr inbounds i8, ptr %0, i64 44
  %4 = load i32, ptr %3, align 4
  %.not = icmp eq i32 %4, 0
  br i1 %.not, label %.critedge, label %5

5:                                                ; preds = %2
  tail call void @zend_wrong_parameters_none_error() #14
  %6 = load ptr, ptr getelementptr inbounds (%struct._zend_executor_globals, ptr @executor_globals, i64 0, i32 50), align 8
  %7 = icmp ne ptr %6, null
  tail call void @llvm.assume(i1 %7)
  br label %52

.critedge:                                        ; preds = %2
  %8 = getelementptr inbounds i8, ptr %0, i64 32
  %9 = load ptr, ptr %8, align 8
  %10 = getelementptr inbounds i8, ptr %9, i64 -32
  %11 = load ptr, ptr %10, align 8
  %12 = getelementptr inbounds i8, ptr %11, i64 36
  %13 = load i32, ptr %12, align 4
  %14 = and i32 %13, 1
  %.not26 = icmp eq i32 %14, 0
  br i1 %.not26, label %20, label %15

15:                                               ; preds = %.critedge
  %16 = load ptr, ptr @spl_ce_RuntimeException, align 8
  %17 = tail call ptr @zend_throw_exception(ptr noundef %16, ptr noundef nonnull @.str, i64 noundef 0) #14
  %18 = load ptr, ptr getelementptr inbounds (%struct._zend_executor_globals, ptr @executor_globals, i64 0, i32 50), align 8
  %19 = icmp ne ptr %18, null
  tail call void @llvm.assume(i1 %19)
  br label %52

20:                                               ; preds = %.critedge
  %21 = getelementptr inbounds i8, ptr %11, i64 32
  %22 = load i32, ptr %21, align 8
  %23 = icmp eq i32 %22, 0
  br i1 %23, label %spl_ptr_heap_top.exit.thread, label %spl_ptr_heap_top.exit

spl_ptr_heap_top.exit:                            ; preds = %20
  %24 = load ptr, ptr %11, align 8
  %.not27 = icmp eq ptr %24, null
  br i1 %.not27, label %spl_ptr_heap_top.exit.thread, label %29

spl_ptr_heap_top.exit.thread:                     ; preds = %20, %spl_ptr_heap_top.exit
  %25 = load ptr, ptr @spl_ce_RuntimeException, align 8
  %26 = tail call ptr @zend_throw_exception(ptr noundef %25, ptr noundef nonnull @.str.2, i64 noundef 0) #14
  %27 = load ptr, ptr getelementptr inbounds (%struct._zend_executor_globals, ptr @executor_globals, i64 0, i32 50), align 8
  %28 = icmp ne ptr %27, null
  tail call void @llvm.assume(i1 %28)
  br label %52

29:                                               ; preds = %spl_ptr_heap_top.exit
  %30 = getelementptr inbounds i8, ptr %24, i64 8
  %31 = load i32, ptr %30, align 8
  %32 = and i32 %31, 65280
  %.not28 = icmp eq i32 %32, 0
  br i1 %.not28, label %47, label %33

33:                                               ; preds = %29
  %34 = and i32 %31, 255
  %35 = icmp eq i32 %34, 10
  br i1 %35, label %36, label %.sink.split

36:                                               ; preds = %33
  %37 = load ptr, ptr %24, align 8
  %38 = getelementptr inbounds i8, ptr %37, i64 8
  %39 = getelementptr inbounds i8, ptr %37, i64 16
  %40 = load i32, ptr %39, align 8
  %41 = and i32 %40, 65280
  %.not29 = icmp eq i32 %41, 0
  br i1 %.not29, label %47, label %.sink.split

.sink.split:                                      ; preds = %33, %36
  %.sink = phi i32 [ %40, %36 ], [ %31, %33 ]
  %.sink34 = phi ptr [ %38, %36 ], [ %24, %33 ]
  %42 = and i32 %.sink, 65280
  %43 = icmp ne i32 %42, 0
  tail call void @llvm.assume(i1 %43)
  %44 = load ptr, ptr %.sink34, align 8
  %45 = load i32, ptr %44, align 4
  %46 = add i32 %45, 1
  store i32 %46, ptr %44, align 4
  br label %47

47:                                               ; preds = %.sink.split, %29, %36
  %.0 = phi ptr [ %38, %36 ], [ %24, %29 ], [ %.sink34, %.sink.split ]
  %48 = load ptr, ptr %.0, align 8
  %49 = getelementptr inbounds i8, ptr %.0, i64 8
  %50 = load i32, ptr %49, align 8
  store ptr %48, ptr %1, align 8
  %51 = getelementptr inbounds i8, ptr %1, i64 8
  store i32 %50, ptr %51, align 8
  br label %52

52:                                               ; preds = %47, %spl_ptr_heap_top.exit.thread, %15, %5
  ret void
}